target datalayout = "e-m:e-p270:32:32-p271:32:32-p272:64:64-i64:64-i128:128-f80:128-n8:16:32:64-S128"
target triple = "x86_64-pc-linux-gnu"

@proto_register_ubt.ett = internal global [3 x ptr] [ptr @ett_ubt, ptr @ett_ubt_tlv, ptr @ett_ubt_flags], align 16
@.str.158 = private unnamed_addr constant [10 x i8] c"Aruba UBT\00", align 1
@.str.159 = private unnamed_addr constant [4 x i8] c"UBT\00", align 1
@.str.160 = private unnamed_addr constant [4 x i8] c"ubt\00", align 1
@proto_ubt = internal global i32 0, align 4
@ubt_handle = internal global ptr null, align 8

; Function Attrs: null_pointer_is_valid sspstrong uwtable
define hidden void @proto_register_ubt() #0 {
  %1 = alloca ptr, align 8
  %2 = call i32 @proto_register_protocol(ptr noundef @.str.158, ptr noundef @.str.159, ptr noundef @.str.160)
  store i32 %2, ptr @proto_ubt, align 4
  %3 = load i32, ptr @proto_ubt, align 4
  call void @proto_register_field_array(i32 noundef %3, ptr noundef @proto_register_ubt.hf, i32 noundef 78)
  call void @proto_register_subtree_array(ptr noundef @proto_register_ubt.ett, i32 noundef 3)
  call void @llvm.lifetime.start.p0(i64 8, ptr %1) #3
  %4 = load i32, ptr @proto_ubt, align 4
  %5 = call ptr @expert_register_protocol(i32 noundef %4)
  store ptr %5, ptr %1, align 8
  %6 = load ptr, ptr %1, align 8
  call void @expert_register_field_array(ptr noundef %6, ptr noundef @proto_register_ubt.ei, i32 noundef 1)
  %7 = load i32, ptr @proto_ubt, align 4
  %8 = call ptr @register_dissector(ptr noundef @.str.160, ptr noundef @dissect_ubt, i32 noundef %7)
  store ptr %8, ptr @ubt_handle, align 8
  call void @llvm.lifetime.end.p0(i64 8, ptr %1) #3
  ret void
}